target datalayout = "e-m:e-p270:32:32-p271:32:32-p272:64:64-i64:64-i128:128-f80:128-n8:16:32:64-S128"
target triple = "x86_64-unknown-linux-gnu"

%class.arith_util = type { ptr, ptr }
%class.bv_util = type { %class.bv_recognizers, ptr, ptr }
%class.bv_recognizers = type { i32 }
%class.bv2real_rewriter = type { ptr, ptr, %class.bv_util, %class.arith_util }

; Function Attrs: mustprogress uwtable
define hidden void @_ZN16bv2real_rewriterC2ER11ast_managerR12bv2real_util(ptr noundef nonnull align 8 dereferenceable(56) %this, ptr noundef nonnull align 8 dereferenceable(976) %m, ptr noundef nonnull align 8 dereferenceable(272) %util) unnamed_addr #4 align 2 {
entry:
  %this.addr = alloca ptr, align 8
  %m.addr = alloca ptr, align 8
  %util.addr = alloca ptr, align 8
  store ptr %this, ptr %this.addr, align 8
  store ptr %m, ptr %m.addr, align 8
  store ptr %util, ptr %util.addr, align 8
  %this1 = load ptr, ptr %this.addr, align 8
  %m_manager = getelementptr inbounds %class.bv2real_rewriter, ptr %this1, i32 0, i32 0
  %0 = load ptr, ptr %m.addr, align 8
  store ptr %0, ptr %m_manager, align 8
  %m_util = getelementptr inbounds %class.bv2real_rewriter, ptr %this1, i32 0, i32 1
  %1 = load ptr, ptr %util.addr, align 8
  store ptr %1, ptr %m_util, align 8
  %m_bv = getelementptr inbounds %class.bv2real_rewriter, ptr %this1, i32 0, i32 2
  %2 = load ptr, ptr %m.addr, align 8
  call void @_ZN7bv_utilC1ER11ast_manager(ptr noundef nonnull align 8 dereferenceable(24) %m_bv, ptr noundef nonnull align 8 dereferenceable(976) %2)
  %m_arith = getelementptr inbounds %class.bv2real_rewriter, ptr %this1, i32 0, i32 3
  %3 = load ptr, ptr %m.addr, align 8
  call void @_ZN10arith_utilC1ER11ast_manager(ptr noundef nonnull align 8 dereferenceable(16) %m_arith, ptr noundef nonnull align 8 dereferenceable(976) %3)
  ret void
}