; Function Attrs: mustprogress uwtable
define hidden void @_ZN16bv2real_rewriterC2ER11ast_managerR12bv2real_util(ptr noundef nonnull align 8 dereferenceable(56) %this, ptr noundef nonnull align 8 dereferenceable(976) %m, ptr noundef nonnull align 8 dereferenceable(272) %util) unnamed_addr #3 align 2 {
entry:
  store ptr %m, ptr %this, align 8
  %m_util = getelementptr inbounds i8, ptr %this, i64 8
  store ptr %util, ptr %m_util, align 8
  %m_bv = getelementptr inbounds i8, ptr %this, i64 16
  tail call void @_ZN7bv_utilC1ER11ast_manager(ptr noundef nonnull align 8 dereferenceable(24) %m_bv, ptr noundef nonnull align 8 dereferenceable(976) %m)
  %m_arith = getelementptr inbounds i8, ptr %this, i64 40
  tail call void @_ZN10arith_utilC1ER11ast_manager(ptr noundef nonnull align 8 dereferenceable(16) %m_arith, ptr noundef nonnull align 8 dereferenceable(976) %m)
  ret void
}